; Function Attrs: mustprogress uwtable
define void @_ZN26MLSceneGLSharedDataContext12initializeGLEv(ptr noundef nonnull align 8 dereferenceable(168) %0) unnamed_addr #9 align 2 {
  %2 = tail call noundef ptr @_ZN10QGLContext14currentContextEv()
  tail call void @_ZN9QGLWidget11makeCurrentEv(ptr noundef nonnull align 8 dereferenceable(48) %0)
  tail call void @_ZN19GLExtensionsManager22initializeGLextensionsEv()
  tail call void @_ZN9QGLWidget11doneCurrentEv(ptr noundef nonnull align 8 dereferenceable(48) %0)
  %.not.i = icmp eq ptr %2, null
  br i1 %.not.i, label %_ZN26MLSceneGLSharedDataContext20doneCurrentGLContextEP10QGLContext.exit, label %3

3:                                                ; preds = %1
  %4 = load ptr, ptr %2, align 8
  %5 = getelementptr inbounds i8, ptr %4, i64 24
  %6 = load ptr, ptr %5, align 8
  tail call void %6(ptr noundef nonnull align 8 dereferenceable(16) %2)
  br label %_ZN26MLSceneGLSharedDataContext20doneCurrentGLContextEP10QGLContext.exit

_ZN26MLSceneGLSharedDataContext20doneCurrentGLContextEP10QGLContext.exit: ; preds = %1, %3
  ret void
}